
ex3.2.elf:     file format elf32-avr

Sections:
Idx Name          Size      VMA       LMA       File off  Algn
  0 .data         00000000  00800100  00000328  000003bc  2**0
                  ALLOC, LOAD, DATA
  1 .text         00000110  00000000  00000000  00000094  2**1
                  CONTENTS, ALLOC, LOAD, READONLY, CODE
  2 .comment      0000002f  00000000  00000000  000003bc  2**0
                  CONTENTS, READONLY
  3 .stack.descriptors.hdr 0000000e  00000000  00000000  000003eb  2**0
                  CONTENTS, READONLY
  4 .debug_aranges 00000030  00000000  00000000  000003f9  2**0
                  CONTENTS, READONLY, DEBUGGING
  5 .debug_info   00000dca  00000000  00000000  00000429  2**0
                  CONTENTS, READONLY, DEBUGGING
  6 .debug_abbrev 000009fc  00000000  00000000  000011f3  2**0
                  CONTENTS, READONLY, DEBUGGING
  7 .debug_line   00000408  00000000  00000000  00001bef  2**0
                  CONTENTS, READONLY, DEBUGGING
  8 .debug_frame  00000054  00000000  00000000  00001ff8  2**2
                  CONTENTS, READONLY, DEBUGGING
  9 .debug_str    00000318  00000000  00000000  0000204c  2**0
                  CONTENTS, READONLY, DEBUGGING
 10 .debug_loc    0000033f  00000000  00000000  00002364  2**0
                  CONTENTS, READONLY, DEBUGGING
 11 .debug_ranges 00000020  00000000  00000000  000026a3  2**0
                  CONTENTS, READONLY, DEBUGGING
 12 .text         00000004  000002f8  000002f8  0000038c  2**1
                  CONTENTS, ALLOC, LOAD, READONLY, CODE
 13 .note.gnu.avr.deviceinfo 00000040  00000000  00000000  000026c4  2**2
                  CONTENTS, READONLY, DEBUGGING
 14 .text.increase 00000048  00000252  00000252  000002e6  2**1
                  CONTENTS, ALLOC, LOAD, READONLY, CODE
 15 .text.decrease 00000048  0000029a  0000029a  0000032e  2**1
                  CONTENTS, ALLOC, LOAD, READONLY, CODE
 16 .text.main    00000142  00000110  00000110  000001a4  2**1
                  CONTENTS, ALLOC, LOAD, READONLY, CODE
 17 .data.table   00000022  00800100  00000306  0000039a  2**0
                  CONTENTS, ALLOC, LOAD, DATA
 18 .text.__dummy_fini 00000002  00000300  00000300  00000394  2**1
                  CONTENTS, ALLOC, LOAD, READONLY, CODE
 19 .text.__dummy_funcs_on_exit 00000002  00000302  00000302  00000396  2**1
                  CONTENTS, ALLOC, LOAD, READONLY, CODE
 20 .text.__dummy_simulator_exit 00000002  00000304  00000304  00000398  2**1
                  CONTENTS, ALLOC, LOAD, READONLY, CODE
 21 .text.exit    00000016  000002e2  000002e2  00000376  2**1
                  CONTENTS, ALLOC, LOAD, READONLY, CODE
 22 .text._Exit   00000004  000002fc  000002fc  00000390  2**1
                  CONTENTS, ALLOC, LOAD, READONLY, CODE

Disassembly of section .text:

00000000 <__vectors>:
   0:	0c 94 5e 00 	jmp	0xbc	; 0xbc <__ctors_end>
   4:	0c 94 7c 01 	jmp	0x2f8	; 0x2f8 <__bad_interrupt>
   8:	0c 94 7c 01 	jmp	0x2f8	; 0x2f8 <__bad_interrupt>
   c:	0c 94 7c 01 	jmp	0x2f8	; 0x2f8 <__bad_interrupt>
  10:	0c 94 7c 01 	jmp	0x2f8	; 0x2f8 <__bad_interrupt>
  14:	0c 94 7c 01 	jmp	0x2f8	; 0x2f8 <__bad_interrupt>
  18:	0c 94 7c 01 	jmp	0x2f8	; 0x2f8 <__bad_interrupt>
  1c:	0c 94 7c 01 	jmp	0x2f8	; 0x2f8 <__bad_interrupt>
  20:	0c 94 7c 01 	jmp	0x2f8	; 0x2f8 <__bad_interrupt>
  24:	0c 94 7c 01 	jmp	0x2f8	; 0x2f8 <__bad_interrupt>
  28:	0c 94 7c 01 	jmp	0x2f8	; 0x2f8 <__bad_interrupt>
  2c:	0c 94 7c 01 	jmp	0x2f8	; 0x2f8 <__bad_interrupt>
  30:	0c 94 7c 01 	jmp	0x2f8	; 0x2f8 <__bad_interrupt>
  34:	0c 94 7c 01 	jmp	0x2f8	; 0x2f8 <__bad_interrupt>
  38:	0c 94 7c 01 	jmp	0x2f8	; 0x2f8 <__bad_interrupt>
  3c:	0c 94 7c 01 	jmp	0x2f8	; 0x2f8 <__bad_interrupt>
  40:	0c 94 7c 01 	jmp	0x2f8	; 0x2f8 <__bad_interrupt>
  44:	0c 94 7c 01 	jmp	0x2f8	; 0x2f8 <__bad_interrupt>
  48:	0c 94 7c 01 	jmp	0x2f8	; 0x2f8 <__bad_interrupt>
  4c:	0c 94 7c 01 	jmp	0x2f8	; 0x2f8 <__bad_interrupt>
  50:	0c 94 7c 01 	jmp	0x2f8	; 0x2f8 <__bad_interrupt>
  54:	0c 94 7c 01 	jmp	0x2f8	; 0x2f8 <__bad_interrupt>
  58:	0c 94 7c 01 	jmp	0x2f8	; 0x2f8 <__bad_interrupt>
  5c:	0c 94 7c 01 	jmp	0x2f8	; 0x2f8 <__bad_interrupt>
  60:	0c 94 7c 01 	jmp	0x2f8	; 0x2f8 <__bad_interrupt>
  64:	0c 94 7c 01 	jmp	0x2f8	; 0x2f8 <__bad_interrupt>
  68:	0c 94 7c 01 	jmp	0x2f8	; 0x2f8 <__bad_interrupt>
  6c:	0c 94 7c 01 	jmp	0x2f8	; 0x2f8 <__bad_interrupt>
  70:	0c 94 7c 01 	jmp	0x2f8	; 0x2f8 <__bad_interrupt>
  74:	0c 94 7c 01 	jmp	0x2f8	; 0x2f8 <__bad_interrupt>
  78:	0c 94 7c 01 	jmp	0x2f8	; 0x2f8 <__bad_interrupt>
  7c:	0c 94 7c 01 	jmp	0x2f8	; 0x2f8 <__bad_interrupt>
  80:	0c 94 7c 01 	jmp	0x2f8	; 0x2f8 <__bad_interrupt>
  84:	0c 94 7c 01 	jmp	0x2f8	; 0x2f8 <__bad_interrupt>
  88:	0c 94 7c 01 	jmp	0x2f8	; 0x2f8 <__bad_interrupt>
  8c:	0c 94 7c 01 	jmp	0x2f8	; 0x2f8 <__bad_interrupt>
  90:	0c 94 7c 01 	jmp	0x2f8	; 0x2f8 <__bad_interrupt>
  94:	0c 94 7c 01 	jmp	0x2f8	; 0x2f8 <__bad_interrupt>
  98:	0c 94 7c 01 	jmp	0x2f8	; 0x2f8 <__bad_interrupt>
  9c:	0c 94 7c 01 	jmp	0x2f8	; 0x2f8 <__bad_interrupt>
  a0:	0c 94 7c 01 	jmp	0x2f8	; 0x2f8 <__bad_interrupt>
  a4:	0c 94 7c 01 	jmp	0x2f8	; 0x2f8 <__bad_interrupt>
  a8:	0c 94 7c 01 	jmp	0x2f8	; 0x2f8 <__bad_interrupt>
  ac:	0c 94 7c 01 	jmp	0x2f8	; 0x2f8 <__bad_interrupt>
  b0:	0c 94 7c 01 	jmp	0x2f8	; 0x2f8 <__bad_interrupt>

000000b4 <.dinit>:
  b4:	01 00       	.word	0x0001	; ????
  b6:	01 22       	and	r0, r17
  b8:	00 03       	mulsu	r16, r16
  ba:	06 00       	.word	0x0006	; ????

000000bc <__ctors_end>:
  bc:	11 24       	eor	r1, r1
  be:	1f be       	out	0x3f, r1	; 63
  c0:	cf ef       	ldi	r28, 0xFF	; 255
  c2:	d8 e0       	ldi	r29, 0x08	; 8
  c4:	de bf       	out	0x3e, r29	; 62
  c6:	cd bf       	out	0x3d, r28	; 61

000000c8 <__do_copy_data>:
  c8:	e4 eb       	ldi	r30, 0xB4	; 180
  ca:	f0 e0       	ldi	r31, 0x00	; 0
  cc:	40 e0       	ldi	r20, 0x00	; 0
  ce:	17 c0       	rjmp	.+46     	; 0xfe <__do_clear_bss+0x8>
  d0:	b5 91       	lpm	r27, Z+
  d2:	a5 91       	lpm	r26, Z+
  d4:	35 91       	lpm	r19, Z+
  d6:	25 91       	lpm	r18, Z+
  d8:	05 91       	lpm	r16, Z+
  da:	07 fd       	sbrc	r16, 7
  dc:	0c c0       	rjmp	.+24     	; 0xf6 <__do_clear_bss>
  de:	95 91       	lpm	r25, Z+
  e0:	85 91       	lpm	r24, Z+
  e2:	ef 01       	movw	r28, r30
  e4:	f9 2f       	mov	r31, r25
  e6:	e8 2f       	mov	r30, r24
  e8:	05 90       	lpm	r0, Z+
  ea:	0d 92       	st	X+, r0
  ec:	a2 17       	cp	r26, r18
  ee:	b3 07       	cpc	r27, r19
  f0:	d9 f7       	brne	.-10     	; 0xe8 <__do_copy_data+0x20>
  f2:	fe 01       	movw	r30, r28
  f4:	04 c0       	rjmp	.+8      	; 0xfe <__do_clear_bss+0x8>

000000f6 <__do_clear_bss>:
  f6:	1d 92       	st	X+, r1
  f8:	a2 17       	cp	r26, r18
  fa:	b3 07       	cpc	r27, r19
  fc:	e1 f7       	brne	.-8      	; 0xf6 <__do_clear_bss>
  fe:	eb 3b       	cpi	r30, 0xBB	; 187
 100:	f4 07       	cpc	r31, r20
 102:	31 f7       	brne	.-52     	; 0xd0 <__do_copy_data+0x8>
 104:	0e 94 88 00 	call	0x110	; 0x110 <_etext>
 108:	0c 94 71 01 	jmp	0x2e2	; 0x2e2 <exit>

0000010c <_exit>:
 10c:	f8 94       	cli

0000010e <__stop_program>:
 10e:	ff cf       	rjmp	.-2      	; 0x10e <__stop_program>

Disassembly of section .text:

000002f8 <__bad_interrupt>:
 2f8:	0c 94 00 00 	jmp	0	; 0x0 <__TEXT_REGION_ORIGIN__>

Disassembly of section .text.increase:

00000252 <increase>:
#include<util/delay.h>

int table[17] = {5, 20, 36, 51, 66, 82, 97, 112, 128, 
				143, 158, 173, 189, 204, 219, 235, 250};

int increase(int *i){
 252:	fc 01       	movw	r30, r24
	// 98% check
	if (*i == 16) return table[*i];
 254:	80 81       	ld	r24, Z
 256:	91 81       	ldd	r25, Z+1	; 0x01
 258:	80 31       	cpi	r24, 0x10	; 16
 25a:	91 05       	cpc	r25, r1
 25c:	71 f4       	brne	.+28     	; 0x27a <increase+0x28>
 25e:	88 0f       	add	r24, r24
 260:	99 1f       	adc	r25, r25
 262:	fc 01       	movw	r30, r24
 264:	e0 50       	subi	r30, 0x00	; 0
 266:	ff 4f       	sbci	r31, 0xFF	; 255
 268:	80 81       	ld	r24, Z
 26a:	91 81       	ldd	r25, Z+1	; 0x01
 26c:	08 95       	ret
	#else
		//round up by default
		__ticks_dc = (uint32_t)(ceil(fabs(__tmp)));
	#endif

	__builtin_avr_delay_cycles(__ticks_dc);
 26e:	8f e1       	ldi	r24, 0x1F	; 31
 270:	9e e4       	ldi	r25, 0x4E	; 78
 272:	01 97       	sbiw	r24, 0x01	; 1
 274:	f1 f7       	brne	.-4      	; 0x272 <increase+0x20>
 276:	00 c0       	rjmp	.+0      	; 0x278 <increase+0x26>
 278:	00 00       	nop
	// debouncing
	while(!(PINB & (1 << PB4))) _delay_ms(5);
 27a:	1c 9b       	sbis	0x03, 4	; 3
 27c:	f8 cf       	rjmp	.-16     	; 0x26e <increase+0x1c>
	// increase DC
	return table[++(*i)];
 27e:	20 81       	ld	r18, Z
 280:	31 81       	ldd	r19, Z+1	; 0x01
 282:	2f 5f       	subi	r18, 0xFF	; 255
 284:	3f 4f       	sbci	r19, 0xFF	; 255
 286:	31 83       	std	Z+1, r19	; 0x01
 288:	20 83       	st	Z, r18
 28a:	22 0f       	add	r18, r18
 28c:	33 1f       	adc	r19, r19
 28e:	f9 01       	movw	r30, r18
 290:	e0 50       	subi	r30, 0x00	; 0
 292:	ff 4f       	sbci	r31, 0xFF	; 255
 294:	80 81       	ld	r24, Z
 296:	91 81       	ldd	r25, Z+1	; 0x01
}
 298:	08 95       	ret

Disassembly of section .text.decrease:

0000029a <decrease>:

int decrease(int *i){
 29a:	fc 01       	movw	r30, r24
	// 2% check
	if (*i == 0) return table[*i];
 29c:	20 81       	ld	r18, Z
 29e:	31 81       	ldd	r19, Z+1	; 0x01
 2a0:	21 15       	cp	r18, r1
 2a2:	31 05       	cpc	r19, r1
 2a4:	71 f4       	brne	.+28     	; 0x2c2 <decrease+0x28>
 2a6:	22 0f       	add	r18, r18
 2a8:	33 1f       	adc	r19, r19
 2aa:	f9 01       	movw	r30, r18
 2ac:	e0 50       	subi	r30, 0x00	; 0
 2ae:	ff 4f       	sbci	r31, 0xFF	; 255
 2b0:	80 81       	ld	r24, Z
 2b2:	91 81       	ldd	r25, Z+1	; 0x01
 2b4:	08 95       	ret
 2b6:	8f e1       	ldi	r24, 0x1F	; 31
 2b8:	9e e4       	ldi	r25, 0x4E	; 78
 2ba:	01 97       	sbiw	r24, 0x01	; 1
 2bc:	f1 f7       	brne	.-4      	; 0x2ba <decrease+0x20>
 2be:	00 c0       	rjmp	.+0      	; 0x2c0 <decrease+0x26>
 2c0:	00 00       	nop
	// debouncing
	while(!(PINB & (1 << PB5))) _delay_ms(5);
 2c2:	1d 9b       	sbis	0x03, 5	; 3
 2c4:	f8 cf       	rjmp	.-16     	; 0x2b6 <decrease+0x1c>
	// decrease DC
	return table[--(*i)];
 2c6:	20 81       	ld	r18, Z
 2c8:	31 81       	ldd	r19, Z+1	; 0x01
 2ca:	21 50       	subi	r18, 0x01	; 1
 2cc:	31 09       	sbc	r19, r1
 2ce:	31 83       	std	Z+1, r19	; 0x01
 2d0:	20 83       	st	Z, r18
 2d2:	22 0f       	add	r18, r18
 2d4:	33 1f       	adc	r19, r19
 2d6:	f9 01       	movw	r30, r18
 2d8:	e0 50       	subi	r30, 0x00	; 0
 2da:	ff 4f       	sbci	r31, 0xFF	; 255
 2dc:	80 81       	ld	r24, Z
 2de:	91 81       	ldd	r25, Z+1	; 0x01
}
 2e0:	08 95       	ret

Disassembly of section .text.main:

00000110 <main>:

int main(){
 110:	cf 93       	push	r28
 112:	df 93       	push	r29
 114:	cd b7       	in	r28, 0x3d	; 61
 116:	de b7       	in	r29, 0x3e	; 62
 118:	a2 97       	sbiw	r28, 0x22	; 34
 11a:	0f b6       	in	r0, 0x3f	; 63
 11c:	f8 94       	cli
 11e:	de bf       	out	0x3e, r29	; 62
 120:	0f be       	out	0x3f, r0	; 63
 122:	cd bf       	out	0x3d, r28	; 61
	// setup PORTB
	DDRB = 0b00000010;
 124:	82 e0       	ldi	r24, 0x02	; 2
 126:	84 b9       	out	0x04, r24	; 4
	PORTB = 0b00110000;
 128:	80 e3       	ldi	r24, 0x30	; 48
 12a:	85 b9       	out	0x05, r24	; 5

	// setup 8bit fast PWM
	// prescaler = 1
	// non-inverting mode
	TCCR1A = (1<<COM1A1)|(1<<WGM10);
 12c:	81 e8       	ldi	r24, 0x81	; 129
 12e:	80 93 80 00 	sts	0x0080, r24	; 0x800080 <__TEXT_REGION_LENGTH__+0x7f8080>
	TCCR1B = (1<<WGM12)|(1<<CS10);
 132:	89 e0       	ldi	r24, 0x09	; 9
 134:	80 93 81 00 	sts	0x0081, r24	; 0x800081 <__TEXT_REGION_LENGTH__+0x7f8081>
	
	// initial DC=50%
	int pwm = 8;
 138:	88 e0       	ldi	r24, 0x08	; 8
 13a:	90 e0       	ldi	r25, 0x00	; 0
 13c:	9a 83       	std	Y+2, r25	; 0x02
 13e:	89 83       	std	Y+1, r24	; 0x01
	int DC_VALUE = table[pwm];
 140:	80 91 10 01 	lds	r24, 0x0110	; 0x800110 <__DATA_REGION_ORIGIN__+0x10>
	OCR1AH = 0;
 144:	10 92 89 00 	sts	0x0089, r1	; 0x800089 <__TEXT_REGION_LENGTH__+0x7f8089>
	OCR1AL = DC_VALUE;
 148:	80 93 88 00 	sts	0x0088, r24	; 0x800088 <__TEXT_REGION_LENGTH__+0x7f8088>
	int current = 0;
	int oldest = 0;
	int sum = 0;
	int avg = -1;
	int adc[16];
	for(int i=0; i<16; i++) adc[i]=0;	// initialize measurements table
 14c:	80 e0       	ldi	r24, 0x00	; 0
 14e:	90 e0       	ldi	r25, 0x00	; 0
 150:	0c c0       	rjmp	.+24     	; 0x16a <main+0x5a>
 152:	fc 01       	movw	r30, r24
 154:	ee 0f       	add	r30, r30
 156:	ff 1f       	adc	r31, r31
 158:	21 e0       	ldi	r18, 0x01	; 1
 15a:	30 e0       	ldi	r19, 0x00	; 0
 15c:	2c 0f       	add	r18, r28
 15e:	3d 1f       	adc	r19, r29
 160:	e2 0f       	add	r30, r18
 162:	f3 1f       	adc	r31, r19
 164:	13 82       	std	Z+3, r1	; 0x03
 166:	12 82       	std	Z+2, r1	; 0x02
 168:	01 96       	adiw	r24, 0x01	; 1
 16a:	80 31       	cpi	r24, 0x10	; 16
 16c:	91 05       	cpc	r25, r1
 16e:	8c f3       	brlt	.-30     	; 0x152 <main+0x42>
	
	// setup D as output
	DDRD = 0xFF;
 170:	8f ef       	ldi	r24, 0xFF	; 255
 172:	8a b9       	out	0x0a, r24	; 10
	
	// setup adc, right adjusted
	ADMUX = (1<<REFS0)|(1<<MUX0);
 174:	81 e4       	ldi	r24, 0x41	; 65
 176:	80 93 7c 00 	sts	0x007C, r24	; 0x80007c <__TEXT_REGION_LENGTH__+0x7f807c>
	ADCSRA = (1<<ADEN)|(1<<ADPS0)|(1<<ADPS1)|(1<<ADPS2);
 17a:	87 e8       	ldi	r24, 0x87	; 135
 17c:	80 93 7a 00 	sts	0x007A, r24	; 0x80007a <__TEXT_REGION_LENGTH__+0x7f807a>
	// oldest is the oldest measurement in the table
	// sum is the sum of the last 16 measurements
	// avg is the average of the last 16 measurements
	int current = 0;
	int oldest = 0;
	int sum = 0;
 180:	e1 2c       	mov	r14, r1
 182:	f1 2c       	mov	r15, r1
	// current is our last measurement
	// oldest is the oldest measurement in the table
	// sum is the sum of the last 16 measurements
	// avg is the average of the last 16 measurements
	int current = 0;
	int oldest = 0;
 184:	00 e0       	ldi	r16, 0x00	; 0
 186:	10 e0       	ldi	r17, 0x00	; 0
	ADCSRA = (1<<ADEN)|(1<<ADPS0)|(1<<ADPS1)|(1<<ADPS2);

	while(1){
		// check if either pin is pressed
		
		if(!(PINB & (1 << PB4))){
 188:	1c 99       	sbic	0x03, 4	; 3
 18a:	06 c0       	rjmp	.+12     	; 0x198 <main+0x88>
			DC_VALUE = increase(&pwm);
 18c:	ce 01       	movw	r24, r28
 18e:	01 96       	adiw	r24, 0x01	; 1
 190:	0e 94 29 01 	call	0x252	; 0x252 <increase>
			OCR1AL = DC_VALUE;
 194:	80 93 88 00 	sts	0x0088, r24	; 0x800088 <__TEXT_REGION_LENGTH__+0x7f8088>
		}
		
		if(!(PINB & (1 << PB5))){
 198:	1d 99       	sbic	0x03, 5	; 3
 19a:	06 c0       	rjmp	.+12     	; 0x1a8 <main+0x98>
			DC_VALUE = decrease(&pwm);
 19c:	ce 01       	movw	r24, r28
 19e:	01 96       	adiw	r24, 0x01	; 1
 1a0:	0e 94 4d 01 	call	0x29a	; 0x29a <decrease>
			OCR1AL = DC_VALUE;
 1a4:	80 93 88 00 	sts	0x0088, r24	; 0x800088 <__TEXT_REGION_LENGTH__+0x7f8088>
		}
		
		// read input
		ADCSRA |= (1<<ADSC);			// begin converting
 1a8:	ea e7       	ldi	r30, 0x7A	; 122
 1aa:	f0 e0       	ldi	r31, 0x00	; 0
 1ac:	80 81       	ld	r24, Z
 1ae:	80 64       	ori	r24, 0x40	; 64
 1b0:	80 83       	st	Z, r24
		while(ADCSRA & (1 << ADSC));	// wait for adc to finish
 1b2:	80 91 7a 00 	lds	r24, 0x007A	; 0x80007a <__TEXT_REGION_LENGTH__+0x7f807a>
 1b6:	86 fd       	sbrc	r24, 6
 1b8:	fc cf       	rjmp	.-8      	; 0x1b2 <main+0xa2>
		current = ADC;					// read ADCL first, then ADCH
 1ba:	80 91 78 00 	lds	r24, 0x0078	; 0x800078 <__TEXT_REGION_LENGTH__+0x7f8078>
 1be:	90 91 79 00 	lds	r25, 0x0079	; 0x800079 <__TEXT_REGION_LENGTH__+0x7f8079>
		
		// calculate average
		sum += current - adc[oldest];	// add new one, subtract oldest one
 1c2:	f8 01       	movw	r30, r16
 1c4:	ee 0f       	add	r30, r30
 1c6:	ff 1f       	adc	r31, r31
 1c8:	41 e0       	ldi	r20, 0x01	; 1
 1ca:	50 e0       	ldi	r21, 0x00	; 0
 1cc:	4c 0f       	add	r20, r28
 1ce:	5d 1f       	adc	r21, r29
 1d0:	e4 0f       	add	r30, r20
 1d2:	f5 1f       	adc	r31, r21
 1d4:	22 81       	ldd	r18, Z+2	; 0x02
 1d6:	33 81       	ldd	r19, Z+3	; 0x03
 1d8:	ac 01       	movw	r20, r24
 1da:	42 1b       	sub	r20, r18
 1dc:	53 0b       	sbc	r21, r19
 1de:	e4 0e       	add	r14, r20
 1e0:	f5 1e       	adc	r15, r21
		adc[oldest] = current;			// add current measurement to the table
 1e2:	93 83       	std	Z+3, r25	; 0x03
 1e4:	82 83       	std	Z+2, r24	; 0x02
		if(++oldest>15) oldest=0;		// wrap around the table
 1e6:	0f 5f       	subi	r16, 0xFF	; 255
 1e8:	1f 4f       	sbci	r17, 0xFF	; 255
 1ea:	00 31       	cpi	r16, 0x10	; 16
 1ec:	11 05       	cpc	r17, r1
 1ee:	14 f0       	brlt	.+4      	; 0x1f4 <main+0xe4>
 1f0:	00 e0       	ldi	r16, 0x00	; 0
 1f2:	10 e0       	ldi	r17, 0x00	; 0
		avg = sum>>4;					// avg=sum/16
 1f4:	c7 01       	movw	r24, r14
 1f6:	95 95       	asr	r25
 1f8:	87 95       	ror	r24
 1fa:	95 95       	asr	r25
 1fc:	87 95       	ror	r24
 1fe:	95 95       	asr	r25
 200:	87 95       	ror	r24
 202:	95 95       	asr	r25
 204:	87 95       	ror	r24
		
		// print
		if (avg<=200) PORTD = 1;
 206:	89 3c       	cpi	r24, 0xC9	; 201
 208:	91 05       	cpc	r25, r1
 20a:	1c f4       	brge	.+6      	; 0x212 <main+0x102>
 20c:	81 e0       	ldi	r24, 0x01	; 1
 20e:	8b b9       	out	0x0b, r24	; 11
 210:	16 c0       	rjmp	.+44     	; 0x23e <main+0x12e>
		else if (avg<=400) PORTD = 2;
 212:	81 39       	cpi	r24, 0x91	; 145
 214:	51 e0       	ldi	r21, 0x01	; 1
 216:	95 07       	cpc	r25, r21
 218:	1c f4       	brge	.+6      	; 0x220 <main+0x110>
 21a:	82 e0       	ldi	r24, 0x02	; 2
 21c:	8b b9       	out	0x0b, r24	; 11
 21e:	0f c0       	rjmp	.+30     	; 0x23e <main+0x12e>
		else if (avg<=600) PORTD = 4;
 220:	89 35       	cpi	r24, 0x59	; 89
 222:	22 e0       	ldi	r18, 0x02	; 2
 224:	92 07       	cpc	r25, r18
 226:	1c f4       	brge	.+6      	; 0x22e <main+0x11e>
 228:	84 e0       	ldi	r24, 0x04	; 4
 22a:	8b b9       	out	0x0b, r24	; 11
 22c:	08 c0       	rjmp	.+16     	; 0x23e <main+0x12e>
		else if (avg<=800) PORTD = 8;
 22e:	81 32       	cpi	r24, 0x21	; 33
 230:	93 40       	sbci	r25, 0x03	; 3
 232:	1c f4       	brge	.+6      	; 0x23a <main+0x12a>
 234:	88 e0       	ldi	r24, 0x08	; 8
 236:	8b b9       	out	0x0b, r24	; 11
 238:	02 c0       	rjmp	.+4      	; 0x23e <main+0x12e>
		else PORTD = 16;
 23a:	80 e1       	ldi	r24, 0x10	; 16
 23c:	8b b9       	out	0x0b, r24	; 11
 23e:	4f ef       	ldi	r20, 0xFF	; 255
 240:	51 ee       	ldi	r21, 0xE1	; 225
 242:	84 e0       	ldi	r24, 0x04	; 4
 244:	41 50       	subi	r20, 0x01	; 1
 246:	50 40       	sbci	r21, 0x00	; 0
 248:	80 40       	sbci	r24, 0x00	; 0
 24a:	e1 f7       	brne	.-8      	; 0x244 <main+0x134>
 24c:	00 c0       	rjmp	.+0      	; 0x24e <main+0x13e>
 24e:	00 00       	nop
 250:	9b cf       	rjmp	.-202    	; 0x188 <main+0x78>

Disassembly of section .text.__dummy_fini:

00000300 <_fini>:
 300:	08 95       	ret

Disassembly of section .text.__dummy_funcs_on_exit:

00000302 <__funcs_on_exit>:
 302:	08 95       	ret

Disassembly of section .text.__dummy_simulator_exit:

00000304 <__simulator_exit>:
 304:	08 95       	ret

Disassembly of section .text.exit:

000002e2 <exit>:
 2e2:	ec 01       	movw	r28, r24
 2e4:	0e 94 81 01 	call	0x302	; 0x302 <__funcs_on_exit>
 2e8:	0e 94 80 01 	call	0x300	; 0x300 <_fini>
 2ec:	ce 01       	movw	r24, r28
 2ee:	0e 94 82 01 	call	0x304	; 0x304 <__simulator_exit>
 2f2:	ce 01       	movw	r24, r28
 2f4:	0e 94 7e 01 	call	0x2fc	; 0x2fc <_Exit>

Disassembly of section .text._Exit:

000002fc <_Exit>:
 2fc:	0e 94 86 00 	call	0x10c	; 0x10c <_exit>
